; Function Attrs: mustprogress uwtable
define hidden noundef i32 @_ZN2cv20RANSACUpdateNumItersEddii(double noundef %0, double noundef %1, i32 noundef %2, i32 noundef %3) local_unnamed_addr #3 personality ptr @__gxx_personality_v0 {
  %5 = alloca %"class.std::__cxx11::basic_string", align 8
  %6 = alloca %"class.std::allocator", align 1
  %7 = icmp slt i32 %2, 1
  br i1 %7, label %8, label %18

8:                                                ; preds = %4
  call void @llvm.lifetime.start.p0(i64 32, ptr nonnull %5) #25
  call void @llvm.lifetime.start.p0(i64 1, ptr nonnull %6) #25
  call void @_ZNSt7__cxx1112basic_stringIcSt11char_traitsIcESaIcEEC2EPKcRKS3_(ptr noundef nonnull align 8 dereferenceable(32) %5, ptr noundef nonnull @.str, ptr noundef nonnull align 1 dereferenceable(1) %6)
  invoke void @_ZN2cv5errorEiRKNSt7__cxx1112basic_stringIcSt11char_traitsIcESaIcEEEPKcS9_i(i32 noundef -211, ptr noundef nonnull align 8 dereferenceable(32) %5, ptr noundef nonnull @__func__._ZN2cv20RANSACUpdateNumItersEddii, ptr noundef nonnull @.str.1, i32 noundef 58) #26
          to label %9 unwind label %10

9:                                                ; preds = %8
  unreachable

10:                                               ; preds = %8
  %11 = landingpad { ptr, i32 }
          cleanup
  %12 = load ptr, ptr %5, align 8, !tbaa !3
  %13 = getelementptr inbounds nuw i8, ptr %5, i64 16
  %14 = icmp eq ptr %12, %13
  br i1 %14, label %_ZNKSt7__cxx1112basic_stringIcSt11char_traitsIcESaIcEE11_M_is_localEv.exit.thread.i.i, label %_ZNKSt7__cxx1112basic_stringIcSt11char_traitsIcESaIcEE11_M_is_localEv.exit.i.i

_ZNKSt7__cxx1112basic_stringIcSt11char_traitsIcESaIcEE11_M_is_localEv.exit.thread.i.i: ; preds = %10
  %15 = getelementptr inbounds nuw i8, ptr %5, i64 8
  %16 = load i64, ptr %15, align 8, !tbaa !11
  %17 = icmp ult i64 %16, 16
  call void @llvm.assume(i1 %17)
  br label %_ZNSt7__cxx1112basic_stringIcSt11char_traitsIcESaIcEED2Ev.exit

_ZNKSt7__cxx1112basic_stringIcSt11char_traitsIcESaIcEE11_M_is_localEv.exit.i.i: ; preds = %10
  call void @_ZdlPv(ptr noundef %12) #27
  br label %_ZNSt7__cxx1112basic_stringIcSt11char_traitsIcESaIcEED2Ev.exit

_ZNSt7__cxx1112basic_stringIcSt11char_traitsIcESaIcEED2Ev.exit: ; preds = %_ZNKSt7__cxx1112basic_stringIcSt11char_traitsIcESaIcEE11_M_is_localEv.exit.i.i, %_ZNKSt7__cxx1112basic_stringIcSt11char_traitsIcESaIcEE11_M_is_localEv.exit.thread.i.i
  call void @llvm.lifetime.end.p0(i64 1, ptr nonnull %6) #25
  call void @llvm.lifetime.end.p0(i64 32, ptr nonnull %5) #25
  resume { ptr, i32 } %11

18:                                               ; preds = %4
  %19 = fcmp olt double %1, 0.000000e+00
  %20 = select i1 %19, double 0.000000e+00, double %1
  %21 = fcmp ogt double %20, 1.000000e+00
  %22 = select i1 %21, double 1.000000e+00, double %20
  %23 = fsub double 1.000000e+00, %22
  %24 = uitofp nneg i32 %2 to double
  %25 = tail call noundef double @pow(double noundef %23, double noundef %24) #25, !tbaa !12
  %26 = fsub double 1.000000e+00, %25
  %27 = fcmp olt double %26, 0x10000000000000
  br i1 %27, label %49, label %28

28:                                               ; preds = %18
  %29 = fcmp olt double %0, 0.000000e+00
  %30 = select i1 %29, double 0.000000e+00, double %0
  %31 = fcmp ogt double %30, 1.000000e+00
  %32 = select i1 %31, double 1.000000e+00, double %30
  %33 = fsub double 1.000000e+00, %32
  %34 = fcmp olt double %33, 0x10000000000000
  %35 = select i1 %34, double 0x10000000000000, double %33
  %36 = tail call double @llvm.log.f64(double %35), !tbaa !12
  %37 = tail call double @llvm.log.f64(double %26), !tbaa !12
  %38 = fcmp ult double %37, 0.000000e+00
  br i1 %38, label %39, label %49

39:                                               ; preds = %28
  %40 = fneg double %36
  %41 = sitofp i32 %3 to double
  %42 = fneg double %37
  %43 = fmul double %41, %42
  %44 = fcmp ugt double %43, %40
  br i1 %44, label %45, label %49

45:                                               ; preds = %39
  %46 = fdiv double %36, %37
  %47 = insertelement <2 x double> poison, double %46, i64 0
  %48 = tail call noundef i32 @llvm.x86.sse2.cvtsd2si(<2 x double> %47)
  br label %49

49:                                               ; preds = %45, %39, %28, %18
  %.026 = phi i32 [ 0, %18 ], [ %48, %45 ], [ %3, %39 ], [ %3, %28 ]
  ret i32 %.026
}